target datalayout = "e-m:e-p270:32:32-p271:32:32-p272:64:64-i64:64-i128:128-f80:128-n8:16:32:64-S128"
target triple = "x86_64-unknown-linux-gnu"

%struct.RISCVCPUClass = type { %struct.CPUClass, ptr, %struct.ResettablePhases }
%struct.CPUClass = type { %struct.DeviceClass, ptr, ptr, ptr, ptr, ptr, ptr, ptr, ptr, ptr, ptr, ptr, ptr, ptr, ptr, ptr, ptr, ptr, ptr, ptr, ptr, ptr, i32, i32, i8 }
%struct.DeviceClass = type { %struct.ObjectClass, [1 x i64], ptr, ptr, ptr, i8, i8, ptr, ptr, ptr, ptr, ptr }
%struct.ObjectClass = type { ptr, ptr, [4 x ptr], [4 x ptr], ptr, ptr }
%struct.ResettablePhases = type { ptr, ptr, ptr }

@.str.250 = private unnamed_addr constant [10 x i8] c"riscv-cpu\00", align 1
@.str.282 = private unnamed_addr constant [31 x i8] c"../qemu/target/riscv/cpu-qom.h\00", align 1
@.str.315 = private unnamed_addr constant [4 x i8] c"cpu\00", align 1
@.str.326 = private unnamed_addr constant [10 x i8] c"mvendorid\00", align 1
@.str.327 = private unnamed_addr constant [7 x i8] c"uint32\00", align 1
@.str.328 = private unnamed_addr constant [7 x i8] c"mimpid\00", align 1
@.str.329 = private unnamed_addr constant [7 x i8] c"uint64\00", align 1
@.str.330 = private unnamed_addr constant [8 x i8] c"marchid\00", align 1
@__func__.RISCV_CPU_CLASS = private unnamed_addr constant [16 x i8] c"RISCV_CPU_CLASS\00", align 1
@.str.331 = private unnamed_addr constant [100 x i8] c"/home/dtcxzyw/WorkSpace/Projects/compilers/llvm-opt-benchmark/bench/qemu/qemu/include/hw/core/cpu.h\00", align 1
@__func__.CPU_CLASS = private unnamed_addr constant [10 x i8] c"CPU_CLASS\00", align 1
@.str.332 = private unnamed_addr constant [7 x i8] c"device\00", align 1
@.str.333 = private unnamed_addr constant [101 x i8] c"/home/dtcxzyw/WorkSpace/Projects/compilers/llvm-opt-benchmark/bench/qemu/qemu/include/hw/qdev-core.h\00", align 1
@__func__.DEVICE_CLASS = private unnamed_addr constant [13 x i8] c"DEVICE_CLASS\00", align 1
@.str.334 = private unnamed_addr constant [11 x i8] c"resettable\00", align 1
@.str.335 = private unnamed_addr constant [102 x i8] c"/home/dtcxzyw/WorkSpace/Projects/compilers/llvm-opt-benchmark/bench/qemu/qemu/include/hw/resettable.h\00", align 1
@__func__.RESETTABLE_CLASS = private unnamed_addr constant [17 x i8] c"RESETTABLE_CLASS\00", align 1

; Function Attrs: nounwind sspstrong uwtable
define internal ptr @RESETTABLE_CLASS(ptr noundef %klass) #0 {
entry:
  %klass.addr = alloca ptr, align 8
  store ptr %klass, ptr %klass.addr, align 8
  %0 = load ptr, ptr %klass.addr, align 8
  %call = call ptr @object_class_dynamic_cast_assert(ptr noundef %0, ptr noundef @.str.334, ptr noundef @.str.335, i32 noundef 22, ptr noundef @__func__.RESETTABLE_CLASS)
  ret ptr %call
}

; Function Attrs: nounwind sspstrong uwtable
define internal ptr @DEVICE_CLASS(ptr noundef %klass) #0 {
entry:
  %klass.addr = alloca ptr, align 8
  store ptr %klass, ptr %klass.addr, align 8
  %0 = load ptr, ptr %klass.addr, align 8
  %call = call ptr @object_class_dynamic_cast_assert(ptr noundef %0, ptr noundef @.str.332, ptr noundef @.str.333, i32 noundef 77, ptr noundef @__func__.DEVICE_CLASS)
  ret ptr %call
}

; Function Attrs: nounwind sspstrong uwtable
define internal ptr @CPU_CLASS(ptr noundef %klass) #0 {
entry:
  %klass.addr = alloca ptr, align 8
  store ptr %klass, ptr %klass.addr, align 8
  %0 = load ptr, ptr %klass.addr, align 8
  %call = call ptr @object_class_dynamic_cast_assert(ptr noundef %0, ptr noundef @.str.315, ptr noundef @.str.331, i32 noundef 64, ptr noundef @__func__.CPU_CLASS)
  ret ptr %call
}

; Function Attrs: nounwind sspstrong uwtable
define internal ptr @RISCV_CPU_CLASS(ptr noundef %klass) #0 {
entry:
  %klass.addr = alloca ptr, align 8
  store ptr %klass, ptr %klass.addr, align 8
  %0 = load ptr, ptr %klass.addr, align 8
  %call = call ptr @object_class_dynamic_cast_assert(ptr noundef %0, ptr noundef @.str.250, ptr noundef @.str.282, i32 noundef 46, ptr noundef @__func__.RISCV_CPU_CLASS)
  ret ptr %call
}

; Function Attrs: nounwind sspstrong uwtable
define internal void @riscv_cpu_class_init(ptr noundef %c, ptr noundef %data) #0 {
entry:
  %c.addr = alloca ptr, align 8
  %data.addr = alloca ptr, align 8
  %mcc = alloca ptr, align 8
  %cc = alloca ptr, align 8
  %dc = alloca ptr, align 8
  %rc = alloca ptr, align 8
  store ptr %c, ptr %c.addr, align 8
  store ptr %data, ptr %data.addr, align 8
  %0 = load ptr, ptr %c.addr, align 8
  %call = call ptr @RISCV_CPU_CLASS(ptr noundef %0)
  store ptr %call, ptr %mcc, align 8
  %1 = load ptr, ptr %c.addr, align 8
  %call1 = call ptr @CPU_CLASS(ptr noundef %1)
  store ptr %call1, ptr %cc, align 8
  %2 = load ptr, ptr %c.addr, align 8
  %call2 = call ptr @DEVICE_CLASS(ptr noundef %2)
  store ptr %call2, ptr %dc, align 8
  %3 = load ptr, ptr %c.addr, align 8
  %call3 = call ptr @RESETTABLE_CLASS(ptr noundef %3)
  store ptr %call3, ptr %rc, align 8
  %4 = load ptr, ptr %dc, align 8
  %5 = load ptr, ptr %mcc, align 8
  %parent_realize = getelementptr inbounds %struct.RISCVCPUClass, ptr %5, i32 0, i32 1
  call void @device_class_set_parent_realize(ptr noundef %4, ptr noundef @riscv_cpu_realize, ptr noundef %parent_realize)
  %6 = load ptr, ptr %rc, align 8
  %7 = load ptr, ptr %mcc, align 8
  %parent_phases = getelementptr inbounds %struct.RISCVCPUClass, ptr %7, i32 0, i32 2
  call void @resettable_class_set_parent_phases(ptr noundef %6, ptr noundef null, ptr noundef @riscv_cpu_reset_hold, ptr noundef null, ptr noundef %parent_phases)
  %8 = load ptr, ptr %cc, align 8
  %class_by_name = getelementptr inbounds %struct.CPUClass, ptr %8, i32 0, i32 1
  store ptr @riscv_cpu_class_by_name, ptr %class_by_name, align 8
  %9 = load ptr, ptr %cc, align 8
  %has_work = getelementptr inbounds %struct.CPUClass, ptr %9, i32 0, i32 3
  store ptr @riscv_cpu_has_work, ptr %has_work, align 8
  %10 = load ptr, ptr %cc, align 8
  %dump_state = getelementptr inbounds %struct.CPUClass, ptr %10, i32 0, i32 5
  store ptr @riscv_cpu_dump_state, ptr %dump_state, align 8
  %11 = load ptr, ptr %cc, align 8
  %set_pc = getelementptr inbounds %struct.CPUClass, ptr %11, i32 0, i32 8
  store ptr @riscv_cpu_set_pc, ptr %set_pc, align 8
  %12 = load ptr, ptr %cc, align 8
  %get_pc = getelementptr inbounds %struct.CPUClass, ptr %12, i32 0, i32 9
  store ptr @riscv_cpu_get_pc, ptr %get_pc, align 8
  %13 = load ptr, ptr %cc, align 8
  %gdb_read_register = getelementptr inbounds %struct.CPUClass, ptr %13, i32 0, i32 10
  store ptr @riscv_cpu_gdb_read_register, ptr %gdb_read_register, align 8
  %14 = load ptr, ptr %cc, align 8
  %gdb_write_register = getelementptr inbounds %struct.CPUClass, ptr %14, i32 0, i32 11
  store ptr @riscv_cpu_gdb_write_register, ptr %gdb_write_register, align 8
  %15 = load ptr, ptr %cc, align 8
  %gdb_num_core_regs = getelementptr inbounds %struct.CPUClass, ptr %15, i32 0, i32 23
  store i32 33, ptr %gdb_num_core_regs, align 4
  %16 = load ptr, ptr %cc, align 8
  %gdb_stop_before_watchpoint = getelementptr inbounds %struct.CPUClass, ptr %16, i32 0, i32 24
  store i8 1, ptr %gdb_stop_before_watchpoint, align 8
  %17 = load ptr, ptr %cc, align 8
  %disas_set_info = getelementptr inbounds %struct.CPUClass, ptr %17, i32 0, i32 16
  store ptr @riscv_cpu_disas_set_info, ptr %disas_set_info, align 8
  %18 = load ptr, ptr %cc, align 8
  %gdb_arch_name = getelementptr inbounds %struct.CPUClass, ptr %18, i32 0, i32 14
  store ptr @riscv_gdb_arch_name, ptr %gdb_arch_name, align 8
  %19 = load ptr, ptr %cc, align 8
  %gdb_get_dynamic_xml = getelementptr inbounds %struct.CPUClass, ptr %19, i32 0, i32 15
  store ptr @riscv_gdb_get_dynamic_xml, ptr %gdb_get_dynamic_xml, align 8
  %20 = load ptr, ptr %c.addr, align 8
  %call4 = call ptr @object_class_property_add(ptr noundef %20, ptr noundef @.str.326, ptr noundef @.str.327, ptr noundef @cpu_get_mvendorid, ptr noundef @cpu_set_mvendorid, ptr noundef null, ptr noundef null)
  %21 = load ptr, ptr %c.addr, align 8
  %call5 = call ptr @object_class_property_add(ptr noundef %21, ptr noundef @.str.328, ptr noundef @.str.329, ptr noundef @cpu_get_mimpid, ptr noundef @cpu_set_mimpid, ptr noundef null, ptr noundef null)
  %22 = load ptr, ptr %c.addr, align 8
  %call6 = call ptr @object_class_property_add(ptr noundef %22, ptr noundef @.str.330, ptr noundef @.str.329, ptr noundef @cpu_get_marchid, ptr noundef @cpu_set_marchid, ptr noundef null, ptr noundef null)
  %23 = load ptr, ptr %dc, align 8
  call void @device_class_set_props(ptr noundef %23, ptr noundef @riscv_cpu_properties)
  ret void
}