; Function Attrs: nounwind sspstrong uwtable
define internal void @riscv_cpu_class_init(ptr noundef %c, ptr readnone captures(none) %data) #3 {
entry:
  %call.i = tail call ptr @object_class_dynamic_cast_assert(ptr noundef %c, ptr noundef nonnull @.str.250, ptr noundef nonnull @.str.282, i32 noundef 46, ptr noundef nonnull @__func__.RISCV_CPU_CLASS) #14
  %call.i20 = tail call ptr @object_class_dynamic_cast_assert(ptr noundef %c, ptr noundef nonnull @.str.315, ptr noundef nonnull @.str.331, i32 noundef 64, ptr noundef nonnull @__func__.CPU_CLASS) #14
  %call.i21 = tail call ptr @object_class_dynamic_cast_assert(ptr noundef %c, ptr noundef nonnull @.str.332, ptr noundef nonnull @.str.333, i32 noundef 77, ptr noundef nonnull @__func__.DEVICE_CLASS) #14
  %call.i22 = tail call ptr @object_class_dynamic_cast_assert(ptr noundef %c, ptr noundef nonnull @.str.334, ptr noundef nonnull @.str.335, i32 noundef 22, ptr noundef nonnull @__func__.RESETTABLE_CLASS) #14
  %parent_realize = getelementptr inbounds nuw i8, ptr %call.i, i64 360
  tail call void @device_class_set_parent_realize(ptr noundef %call.i21, ptr noundef nonnull @riscv_cpu_realize, ptr noundef nonnull %parent_realize) #14
  %parent_phases = getelementptr inbounds nuw i8, ptr %call.i, i64 368
  tail call void @resettable_class_set_parent_phases(ptr noundef %call.i22, ptr noundef null, ptr noundef nonnull @riscv_cpu_reset_hold, ptr noundef null, ptr noundef nonnull %parent_phases) #14
  %class_by_name = getelementptr inbounds nuw i8, ptr %call.i20, i64 176
  store ptr @riscv_cpu_class_by_name, ptr %class_by_name, align 8
  %has_work = getelementptr inbounds nuw i8, ptr %call.i20, i64 192
  store ptr @riscv_cpu_has_work, ptr %has_work, align 8
  %dump_state = getelementptr inbounds nuw i8, ptr %call.i20, i64 208
  store ptr @riscv_cpu_dump_state, ptr %dump_state, align 8
  %set_pc = getelementptr inbounds nuw i8, ptr %call.i20, i64 232
  store ptr @riscv_cpu_set_pc, ptr %set_pc, align 8
  %get_pc = getelementptr inbounds nuw i8, ptr %call.i20, i64 240
  store ptr @riscv_cpu_get_pc, ptr %get_pc, align 8
  %gdb_read_register = getelementptr inbounds nuw i8, ptr %call.i20, i64 248
  store ptr @riscv_cpu_gdb_read_register, ptr %gdb_read_register, align 8
  %gdb_write_register = getelementptr inbounds nuw i8, ptr %call.i20, i64 256
  store ptr @riscv_cpu_gdb_write_register, ptr %gdb_write_register, align 8
  %gdb_num_core_regs = getelementptr inbounds nuw i8, ptr %call.i20, i64 348
  store i32 33, ptr %gdb_num_core_regs, align 4
  %gdb_stop_before_watchpoint = getelementptr inbounds nuw i8, ptr %call.i20, i64 352
  store i8 1, ptr %gdb_stop_before_watchpoint, align 8
  %disas_set_info = getelementptr inbounds nuw i8, ptr %call.i20, i64 296
  store ptr @riscv_cpu_disas_set_info, ptr %disas_set_info, align 8
  %gdb_arch_name = getelementptr inbounds nuw i8, ptr %call.i20, i64 280
  store ptr @riscv_gdb_arch_name, ptr %gdb_arch_name, align 8
  %gdb_get_dynamic_xml = getelementptr inbounds nuw i8, ptr %call.i20, i64 288
  store ptr @riscv_gdb_get_dynamic_xml, ptr %gdb_get_dynamic_xml, align 8
  %call4 = tail call ptr @object_class_property_add(ptr noundef %c, ptr noundef nonnull @.str.326, ptr noundef nonnull @.str.327, ptr noundef nonnull @cpu_get_mvendorid, ptr noundef nonnull @cpu_set_mvendorid, ptr noundef null, ptr noundef null) #14
  %call5 = tail call ptr @object_class_property_add(ptr noundef %c, ptr noundef nonnull @.str.328, ptr noundef nonnull @.str.329, ptr noundef nonnull @cpu_get_mimpid, ptr noundef nonnull @cpu_set_mimpid, ptr noundef null, ptr noundef null) #14
  %call6 = tail call ptr @object_class_property_add(ptr noundef %c, ptr noundef nonnull @.str.330, ptr noundef nonnull @.str.329, ptr noundef nonnull @cpu_get_marchid, ptr noundef nonnull @cpu_set_marchid, ptr noundef null, ptr noundef null) #14
  tail call void @device_class_set_props(ptr noundef %call.i21, ptr noundef nonnull @riscv_cpu_properties) #14
  ret void
}